target datalayout = "e-m:e-p270:32:32-p271:32:32-p272:64:64-i64:64-i128:128-f80:128-n8:16:32:64-S128"
target triple = "x86_64-pc-linux-gnu"

%struct.tcg_region_state = type { %struct.QemuMutex, ptr, ptr, i64, i64, i64, i64, i64, i64 }
%struct.QemuMutex = type { %union.pthread_mutex_t, i8 }
%union.pthread_mutex_t = type { %struct.__pthread_mutex_s }
%struct.__pthread_mutex_s = type { i32, i32, i32, i32, i32, i16, i16, %struct.__pthread_internal_list }
%struct.__pthread_internal_list = type { ptr, ptr }
%struct.TCGContext = type { ptr, ptr, ptr, ptr, ptr, i32, i32, i32, i32, i32, i32, i32, i8, i8, i8, i32, i32, i64, i64, i64, ptr, ptr, ptr, ptr, ptr, i64, ptr, ptr, ptr, ptr, %struct.anon, ptr, ptr, ptr, ptr, ptr, [6 x ptr], [6 x %struct.TCGTempSet], [512 x %struct.TCGTemp], %union.anon, %union.anon, %struct.anon.0, ptr, [32 x ptr], [512 x i16], ptr, [1 x %struct.__jmp_buf_tag] }
%struct.anon = type { ptr, ptr }
%struct.TCGTempSet = type { [8 x i64] }
%struct.TCGTemp = type { i64, i64, ptr, i64, ptr, i64, ptr }
%union.anon = type { %struct.QTailQLink }
%struct.QTailQLink = type { ptr, ptr }
%struct.anon.0 = type { ptr, ptr }
%struct.__jmp_buf_tag = type { [8 x i64], i32, %struct.__sigset_t }
%struct.__sigset_t = type { [16 x i64] }
%struct.tcg_region_tree = type { %struct.QemuMutex, ptr }

@region = internal global %struct.tcg_region_state zeroinitializer, align 8
@.str = private unnamed_addr constant [21 x i8] c"../qemu/tcg/region.c\00", align 1
@qemu_mutex_lock_func = external global ptr, align 8
@region_trees = internal global ptr null, align 8
@tree_size = internal global i64 0, align 8
@tcg_cur_ctxs = external global i32, align 4
@tcg_ctxs = external global ptr, align 8
@__func__.tcg_region_initial_alloc__locked = private unnamed_addr constant [33 x i8] c"tcg_region_initial_alloc__locked\00", align 1
@.str.7 = private unnamed_addr constant [5 x i8] c"!err\00", align 1

; Function Attrs: nounwind sspstrong uwtable
define internal void @tcg_region_bounds(i64 noundef %0, ptr noundef %1, ptr noundef %2) #0 {
  %4 = alloca i64, align 8
  %5 = alloca ptr, align 8
  %6 = alloca ptr, align 8
  %7 = alloca ptr, align 8
  %8 = alloca ptr, align 8
  store i64 %0, ptr %4, align 8
  store ptr %1, ptr %5, align 8
  store ptr %2, ptr %6, align 8
  call void @llvm.lifetime.start.p0(i64 8, ptr %7) #11
  store ptr null, ptr %7, align 8, !annotation !4
  call void @llvm.lifetime.start.p0(i64 8, ptr %8) #11
  store ptr null, ptr %8, align 8, !annotation !4
  %9 = load ptr, ptr getelementptr inbounds nuw (%struct.tcg_region_state, ptr @region, i32 0, i32 1), align 8
  %10 = load i64, ptr %4, align 8
  %11 = load i64, ptr getelementptr inbounds nuw (%struct.tcg_region_state, ptr @region, i32 0, i32 5), align 8
  %12 = mul i64 %10, %11
  %13 = getelementptr inbounds nuw i8, ptr %9, i64 %12
  store ptr %13, ptr %7, align 8
  %14 = load ptr, ptr %7, align 8
  %15 = load i64, ptr getelementptr inbounds nuw (%struct.tcg_region_state, ptr @region, i32 0, i32 4), align 8
  %16 = getelementptr inbounds nuw i8, ptr %14, i64 %15
  store ptr %16, ptr %8, align 8
  %17 = load i64, ptr %4, align 8
  %18 = icmp eq i64 %17, 0
  br i1 %18, label %19, label %21

19:                                               ; preds = %3
  %20 = load ptr, ptr getelementptr inbounds nuw (%struct.tcg_region_state, ptr @region, i32 0, i32 2), align 8
  store ptr %20, ptr %7, align 8
  br label %21

21:                                               ; preds = %19, %3
  %22 = load i64, ptr %4, align 8
  %23 = load i64, ptr getelementptr inbounds nuw (%struct.tcg_region_state, ptr @region, i32 0, i32 3), align 8
  %24 = sub i64 %23, 1
  %25 = icmp eq i64 %22, %24
  br i1 %25, label %26, label %30

26:                                               ; preds = %21
  %27 = load ptr, ptr getelementptr inbounds nuw (%struct.tcg_region_state, ptr @region, i32 0, i32 1), align 8
  %28 = load i64, ptr getelementptr inbounds nuw (%struct.tcg_region_state, ptr @region, i32 0, i32 6), align 8
  %29 = getelementptr inbounds nuw i8, ptr %27, i64 %28
  store ptr %29, ptr %8, align 8
  br label %30

30:                                               ; preds = %26, %21
  %31 = load ptr, ptr %7, align 8
  %32 = load ptr, ptr %5, align 8
  store ptr %31, ptr %32, align 8
  %33 = load ptr, ptr %8, align 8
  %34 = load ptr, ptr %6, align 8
  store ptr %33, ptr %34, align 8
  call void @llvm.lifetime.end.p0(i64 8, ptr %8) #11
  call void @llvm.lifetime.end.p0(i64 8, ptr %7) #11
  ret void
}

; Function Attrs: nounwind sspstrong uwtable
define internal void @tcg_region_assign(ptr noundef %0, i64 noundef %1) #0 {
  %3 = alloca ptr, align 8
  %4 = alloca i64, align 8
  %5 = alloca ptr, align 8
  %6 = alloca ptr, align 8
  store ptr %0, ptr %3, align 8
  store i64 %1, ptr %4, align 8
  call void @llvm.lifetime.start.p0(i64 8, ptr %5) #11
  store ptr null, ptr %5, align 8, !annotation !4
  call void @llvm.lifetime.start.p0(i64 8, ptr %6) #11
  store ptr null, ptr %6, align 8, !annotation !4
  %7 = load i64, ptr %4, align 8
  call void @tcg_region_bounds(i64 noundef %7, ptr noundef %5, ptr noundef %6)
  %8 = load ptr, ptr %5, align 8
  %9 = load ptr, ptr %3, align 8
  %10 = getelementptr inbounds nuw %struct.TCGContext, ptr %9, i32 0, i32 24
  store ptr %8, ptr %10, align 8
  %11 = load ptr, ptr %5, align 8
  %12 = load ptr, ptr %3, align 8
  %13 = getelementptr inbounds nuw %struct.TCGContext, ptr %12, i32 0, i32 26
  store ptr %11, ptr %13, align 8
  %14 = load ptr, ptr %6, align 8
  %15 = load ptr, ptr %5, align 8
  %16 = ptrtoint ptr %14 to i64
  %17 = ptrtoint ptr %15 to i64
  %18 = sub i64 %16, %17
  %19 = load ptr, ptr %3, align 8
  %20 = getelementptr inbounds nuw %struct.TCGContext, ptr %19, i32 0, i32 25
  store i64 %18, ptr %20, align 8
  %21 = load ptr, ptr %6, align 8
  %22 = getelementptr inbounds i8, ptr %21, i64 -1024
  %23 = load ptr, ptr %3, align 8
  %24 = getelementptr inbounds nuw %struct.TCGContext, ptr %23, i32 0, i32 28
  store ptr %22, ptr %24, align 8
  call void @llvm.lifetime.end.p0(i64 8, ptr %6) #11
  call void @llvm.lifetime.end.p0(i64 8, ptr %5) #11
  ret void
}

; Function Attrs: nounwind sspstrong uwtable
define internal void @tcg_region_tree_unlock_all() #0 {
  %1 = alloca i64, align 8
  %2 = alloca ptr, align 8
  call void @llvm.lifetime.start.p0(i64 8, ptr %1) #11
  store i64 0, ptr %1, align 8, !annotation !4
  store i64 0, ptr %1, align 8
  br label %3

3:                                                ; preds = %15, %0
  %4 = load i64, ptr %1, align 8
  %5 = load i64, ptr getelementptr inbounds nuw (%struct.tcg_region_state, ptr @region, i32 0, i32 3), align 8
  %6 = icmp ult i64 %4, %5
  br i1 %6, label %7, label %18

7:                                                ; preds = %3
  call void @llvm.lifetime.start.p0(i64 8, ptr %2) #11
  %8 = load ptr, ptr @region_trees, align 8
  %9 = load i64, ptr %1, align 8
  %10 = load i64, ptr @tree_size, align 8
  %11 = mul i64 %9, %10
  %12 = getelementptr inbounds nuw i8, ptr %8, i64 %11
  store ptr %12, ptr %2, align 8
  %13 = load ptr, ptr %2, align 8
  %14 = getelementptr inbounds nuw %struct.tcg_region_tree, ptr %13, i32 0, i32 0
  call void @qemu_mutex_unlock_impl(ptr noundef %14, ptr noundef @.str, i32 noundef 282)
  call void @llvm.lifetime.end.p0(i64 8, ptr %2) #11
  br label %15

15:                                               ; preds = %7
  %16 = load i64, ptr %1, align 8
  %17 = add i64 %16, 1
  store i64 %17, ptr %1, align 8
  br label %3, !llvm.loop !12

18:                                               ; preds = %3
  call void @llvm.lifetime.end.p0(i64 8, ptr %1) #11
  ret void
}

; Function Attrs: nounwind sspstrong uwtable
define internal void @tcg_region_tree_lock_all() #0 {
  %1 = alloca i64, align 8
  %2 = alloca ptr, align 8
  %3 = alloca ptr, align 8
  %4 = alloca ptr, align 8
  %5 = alloca ptr, align 8
  call void @llvm.lifetime.start.p0(i64 8, ptr %1) #11
  store i64 0, ptr %1, align 8, !annotation !4
  store i64 0, ptr %1, align 8
  br label %6

6:                                                ; preds = %25, %0
  %7 = load i64, ptr %1, align 8
  %8 = load i64, ptr getelementptr inbounds nuw (%struct.tcg_region_state, ptr @region, i32 0, i32 3), align 8
  %9 = icmp ult i64 %7, %8
  br i1 %9, label %10, label %28

10:                                               ; preds = %6
  call void @llvm.lifetime.start.p0(i64 8, ptr %2) #11
  %11 = load ptr, ptr @region_trees, align 8
  %12 = load i64, ptr %1, align 8
  %13 = load i64, ptr @tree_size, align 8
  %14 = mul i64 %12, %13
  %15 = getelementptr inbounds nuw i8, ptr %11, i64 %14
  store ptr %15, ptr %2, align 8
  call void @llvm.lifetime.start.p0(i64 8, ptr %3) #11
  br label %16

16:                                               ; preds = %10
  br i1 false, label %17, label %18

17:                                               ; preds = %16
  call void @qemu_build_not_reached_always() #12, !srcloc !10
  unreachable

18:                                               ; preds = %16
  %19 = load atomic i64, ptr @qemu_mutex_lock_func monotonic, align 8
  store i64 %19, ptr %5, align 8
  %20 = load ptr, ptr %5, align 8
  store ptr %20, ptr %4, align 8
  %21 = load ptr, ptr %4, align 8
  store ptr %21, ptr %3, align 8
  %22 = load ptr, ptr %3, align 8
  %23 = load ptr, ptr %2, align 8
  %24 = getelementptr inbounds nuw %struct.tcg_region_tree, ptr %23, i32 0, i32 0
  call void %22(ptr noundef %24, ptr noundef @.str, i32 noundef 271)
  call void @llvm.lifetime.end.p0(i64 8, ptr %3) #11
  call void @llvm.lifetime.end.p0(i64 8, ptr %2) #11
  br label %25

25:                                               ; preds = %18
  %26 = load i64, ptr %1, align 8
  %27 = add i64 %26, 1
  store i64 %27, ptr %1, align 8
  br label %6, !llvm.loop !11

28:                                               ; preds = %6
  call void @llvm.lifetime.end.p0(i64 8, ptr %1) #11
  ret void
}

; Function Attrs: nounwind sspstrong uwtable
define internal zeroext i1 @tcg_region_alloc__locked(ptr noundef %0) #0 {
  %2 = alloca i1, align 1
  %3 = alloca ptr, align 8
  store ptr %0, ptr %3, align 8
  %4 = load i64, ptr getelementptr inbounds nuw (%struct.tcg_region_state, ptr @region, i32 0, i32 7), align 8
  %5 = load i64, ptr getelementptr inbounds nuw (%struct.tcg_region_state, ptr @region, i32 0, i32 3), align 8
  %6 = icmp eq i64 %4, %5
  br i1 %6, label %7, label %8

7:                                                ; preds = %1
  store i1 true, ptr %2, align 1
  br label %13

8:                                                ; preds = %1
  %9 = load ptr, ptr %3, align 8
  %10 = load i64, ptr getelementptr inbounds nuw (%struct.tcg_region_state, ptr @region, i32 0, i32 7), align 8
  call void @tcg_region_assign(ptr noundef %9, i64 noundef %10)
  %11 = load i64, ptr getelementptr inbounds nuw (%struct.tcg_region_state, ptr @region, i32 0, i32 7), align 8
  %12 = add i64 %11, 1
  store i64 %12, ptr getelementptr inbounds nuw (%struct.tcg_region_state, ptr @region, i32 0, i32 7), align 8
  store i1 false, ptr %2, align 1
  br label %13

13:                                               ; preds = %8, %7
  %14 = load i1, ptr %2, align 1
  ret i1 %14
}

; Function Attrs: nounwind sspstrong uwtable
define internal void @tcg_region_tree_reset_all() #0 {
  %1 = alloca i64, align 8
  %2 = alloca ptr, align 8
  call void @llvm.lifetime.start.p0(i64 8, ptr %1) #11
  store i64 0, ptr %1, align 8, !annotation !4
  call void @tcg_region_tree_lock_all()
  store i64 0, ptr %1, align 8
  br label %3

3:                                                ; preds = %20, %0
  %4 = load i64, ptr %1, align 8
  %5 = load i64, ptr getelementptr inbounds nuw (%struct.tcg_region_state, ptr @region, i32 0, i32 3), align 8
  %6 = icmp ult i64 %4, %5
  br i1 %6, label %7, label %23

7:                                                ; preds = %3
  call void @llvm.lifetime.start.p0(i64 8, ptr %2) #11
  %8 = load ptr, ptr @region_trees, align 8
  %9 = load i64, ptr %1, align 8
  %10 = load i64, ptr @tree_size, align 8
  %11 = mul i64 %9, %10
  %12 = getelementptr inbounds nuw i8, ptr %8, i64 %11
  store ptr %12, ptr %2, align 8
  %13 = load ptr, ptr %2, align 8
  %14 = getelementptr inbounds nuw %struct.tcg_region_tree, ptr %13, i32 0, i32 1
  %15 = load ptr, ptr %14, align 8
  %16 = call ptr @q_tree_ref(ptr noundef %15)
  %17 = load ptr, ptr %2, align 8
  %18 = getelementptr inbounds nuw %struct.tcg_region_tree, ptr %17, i32 0, i32 1
  %19 = load ptr, ptr %18, align 8
  call void @q_tree_destroy(ptr noundef %19)
  call void @llvm.lifetime.end.p0(i64 8, ptr %2) #11
  br label %20

20:                                               ; preds = %7
  %21 = load i64, ptr %1, align 8
  %22 = add i64 %21, 1
  store i64 %22, ptr %1, align 8
  br label %3, !llvm.loop !22

23:                                               ; preds = %3
  call void @tcg_region_tree_unlock_all()
  call void @llvm.lifetime.end.p0(i64 8, ptr %1) #11
  ret void
}

; Function Attrs: nounwind sspstrong uwtable
define internal void @tcg_region_initial_alloc__locked(ptr noundef %0) #0 {
  %2 = alloca ptr, align 8
  %3 = alloca i8, align 1
  %4 = alloca i32, align 4
  %5 = alloca i32, align 4
  store ptr %0, ptr %2, align 8
  call void @llvm.lifetime.start.p0(i64 1, ptr %3) #11
  %6 = load ptr, ptr %2, align 8
  %7 = call zeroext i1 @tcg_region_alloc__locked(ptr noundef %6)
  %8 = zext i1 %7 to i8
  store i8 %8, ptr %3, align 1
  br label %9

9:                                                ; preds = %1
  call void @llvm.lifetime.start.p0(i64 4, ptr %4) #11
  store i32 0, ptr %4, align 4, !annotation !4
  %10 = load i8, ptr %3, align 1, !range !15, !noundef !16
  %11 = trunc i8 %10 to i1
  br i1 %11, label %13, label %12

12:                                               ; preds = %9
  store i32 1, ptr %4, align 4
  br label %14

13:                                               ; preds = %9
  store i32 0, ptr %4, align 4
  br label %14

14:                                               ; preds = %13, %12
  %15 = load i32, ptr %4, align 4
  store i32 %15, ptr %5, align 4
  call void @llvm.lifetime.end.p0(i64 4, ptr %4) #11
  %16 = load i32, ptr %5, align 4
  %17 = sext i32 %16 to i64
  %18 = call i64 @llvm.expect.i64(i64 %17, i64 1)
  %19 = icmp ne i64 %18, 0
  br i1 %19, label %20, label %21

20:                                               ; preds = %14
  br label %22

21:                                               ; preds = %14
  call void @g_assertion_message_expr(ptr noundef null, ptr noundef @.str, i32 noundef 396, ptr noundef @__func__.tcg_region_initial_alloc__locked, ptr noundef @.str.7) #12
  unreachable

22:                                               ; preds = %20
  br label %23

23:                                               ; preds = %22
  br label %24

24:                                               ; preds = %23
  call void @llvm.lifetime.end.p0(i64 1, ptr %3) #11
  ret void
}

; Function Attrs: nounwind sspstrong uwtable
define dso_local void @tcg_region_reset_all() #0 {
  %1 = alloca i32, align 4
  %2 = alloca i32, align 4
  %3 = alloca i32, align 4
  %4 = alloca i32, align 4
  %5 = alloca ptr, align 8
  %6 = alloca ptr, align 8
  %7 = alloca ptr, align 8
  %8 = alloca ptr, align 8
  %9 = alloca ptr, align 8
  %10 = alloca ptr, align 8
  call void @llvm.lifetime.start.p0(i64 4, ptr %1) #11
  br label %11

11:                                               ; preds = %0
  br i1 false, label %12, label %13

12:                                               ; preds = %11
  call void @qemu_build_not_reached_always() #12, !srcloc !18
  unreachable

13:                                               ; preds = %11
  %14 = load atomic i32, ptr @tcg_cur_ctxs monotonic, align 4
  store i32 %14, ptr %3, align 4
  %15 = load i32, ptr %3, align 4
  store i32 %15, ptr %2, align 4
  %16 = load i32, ptr %2, align 4
  store i32 %16, ptr %1, align 4
  call void @llvm.lifetime.start.p0(i64 4, ptr %4) #11
  store i32 0, ptr %4, align 4, !annotation !4
  call void @llvm.lifetime.start.p0(i64 8, ptr %5) #11
  br label %17

17:                                               ; preds = %13
  br i1 false, label %18, label %19

18:                                               ; preds = %17
  call void @qemu_build_not_reached_always() #12, !srcloc !19
  unreachable

19:                                               ; preds = %17
  %20 = load atomic i64, ptr @qemu_mutex_lock_func monotonic, align 8
  store i64 %20, ptr %7, align 8
  %21 = load ptr, ptr %7, align 8
  store ptr %21, ptr %6, align 8
  %22 = load ptr, ptr %6, align 8
  store ptr %22, ptr %5, align 8
  %23 = load ptr, ptr %5, align 8
  call void %23(ptr noundef @region, ptr noundef @.str, i32 noundef 412)
  call void @llvm.lifetime.end.p0(i64 8, ptr %5) #11
  store i64 0, ptr getelementptr inbounds nuw (%struct.tcg_region_state, ptr @region, i32 0, i32 7), align 8
  store i64 0, ptr getelementptr inbounds nuw (%struct.tcg_region_state, ptr @region, i32 0, i32 8), align 8
  store i32 0, ptr %4, align 4
  br label %24

24:                                               ; preds = %40, %19
  %25 = load i32, ptr %4, align 4
  %26 = load i32, ptr %1, align 4
  %27 = icmp ult i32 %25, %26
  br i1 %27, label %28, label %43

28:                                               ; preds = %24
  call void @llvm.lifetime.start.p0(i64 8, ptr %8) #11
  br label %29

29:                                               ; preds = %28
  br i1 false, label %30, label %31

30:                                               ; preds = %29
  call void @qemu_build_not_reached_always() #12, !srcloc !20
  unreachable

31:                                               ; preds = %29
  %32 = load ptr, ptr @tcg_ctxs, align 8
  %33 = load i32, ptr %4, align 4
  %34 = zext i32 %33 to i64
  %35 = getelementptr inbounds nuw ptr, ptr %32, i64 %34
  %36 = load atomic i64, ptr %35 monotonic, align 8
  store i64 %36, ptr %10, align 8
  %37 = load ptr, ptr %10, align 8
  store ptr %37, ptr %9, align 8
  %38 = load ptr, ptr %9, align 8
  store ptr %38, ptr %8, align 8
  %39 = load ptr, ptr %8, align 8
  call void @tcg_region_initial_alloc__locked(ptr noundef %39)
  call void @llvm.lifetime.end.p0(i64 8, ptr %8) #11
  br label %40

40:                                               ; preds = %31
  %41 = load i32, ptr %4, align 4
  %42 = add i32 %41, 1
  store i32 %42, ptr %4, align 4
  br label %24, !llvm.loop !21

43:                                               ; preds = %24
  call void @qemu_mutex_unlock_impl(ptr noundef @region, ptr noundef @.str, i32 noundef 420)
  call void @tcg_region_tree_reset_all()
  call void @llvm.lifetime.end.p0(i64 4, ptr %4) #11
  call void @llvm.lifetime.end.p0(i64 4, ptr %1) #11
  ret void
}