; Function Attrs: nounwind sspstrong uwtable
define dso_local void @tcg_region_reset_all() local_unnamed_addr #1 {
  %1 = load atomic i32, ptr @tcg_cur_ctxs monotonic, align 4
  %2 = load atomic i64, ptr @qemu_mutex_lock_func monotonic, align 8
  %3 = inttoptr i64 %2 to ptr
  tail call void %3(ptr noundef nonnull @region, ptr noundef nonnull @.str, i32 noundef 412) #12
  %.not = icmp eq i32 %1, 0
  tail call void @llvm.memset.p0.i64(ptr noundef nonnull align 8 dereferenceable(16) getelementptr inbounds nuw (i8, ptr @region, i64 96), i8 0, i64 16, i1 false)
  br i1 %.not, label %._crit_edge, label %.lr.ph

.lr.ph:                                           ; preds = %0
  %4 = load ptr, ptr @tcg_ctxs, align 8
  %5 = load i64, ptr getelementptr inbounds nuw (i8, ptr @region, i64 64), align 8
  %6 = load ptr, ptr getelementptr inbounds nuw (i8, ptr @region, i64 48), align 8
  %7 = load i64, ptr getelementptr inbounds nuw (i8, ptr @region, i64 80), align 8
  %8 = load i64, ptr getelementptr inbounds nuw (i8, ptr @region, i64 72), align 8
  %9 = load ptr, ptr getelementptr inbounds nuw (i8, ptr @region, i64 56), align 8
  %10 = add i64 %5, -1
  %11 = load i64, ptr getelementptr inbounds nuw (i8, ptr @region, i64 88), align 8
  %12 = getelementptr inbounds nuw i8, ptr %6, i64 %11
  %wide.trip.count = zext i32 %1 to i64
  br label %13

13:                                               ; preds = %.lr.ph, %tcg_region_initial_alloc__locked.exit
  %14 = phi i64 [ 0, %.lr.ph ], [ %33, %tcg_region_initial_alloc__locked.exit ]
  %indvars.iv = phi i64 [ 0, %.lr.ph ], [ %indvars.iv.next, %tcg_region_initial_alloc__locked.exit ]
  %15 = getelementptr inbounds nuw ptr, ptr %4, i64 %indvars.iv
  %16 = load atomic i64, ptr %15 monotonic, align 8
  %17 = icmp eq i64 %14, %5
  br i1 %17, label %18, label %tcg_region_initial_alloc__locked.exit

18:                                               ; preds = %13
  tail call void @g_assertion_message_expr(ptr noundef null, ptr noundef nonnull @.str, i32 noundef 396, ptr noundef nonnull @__func__.tcg_region_initial_alloc__locked, ptr noundef nonnull @.str.7) #11
  unreachable

tcg_region_initial_alloc__locked.exit:            ; preds = %13
  %19 = inttoptr i64 %16 to ptr
  %20 = mul i64 %7, %14
  %21 = getelementptr inbounds nuw i8, ptr %6, i64 %20
  %22 = getelementptr inbounds nuw i8, ptr %21, i64 %8
  %23 = icmp eq i64 %14, 0
  %spec.select.i.i.i.i = select i1 %23, ptr %9, ptr %21
  %24 = icmp eq i64 %14, %10
  %.0.i.i.i.i = select i1 %24, ptr %12, ptr %22
  %25 = getelementptr inbounds nuw i8, ptr %19, i64 136
  store ptr %spec.select.i.i.i.i, ptr %25, align 8
  %26 = getelementptr inbounds nuw i8, ptr %19, i64 152
  store ptr %spec.select.i.i.i.i, ptr %26, align 8
  %27 = ptrtoint ptr %.0.i.i.i.i to i64
  %28 = ptrtoint ptr %spec.select.i.i.i.i to i64
  %29 = sub i64 %27, %28
  %30 = getelementptr inbounds nuw i8, ptr %19, i64 144
  store i64 %29, ptr %30, align 8
  %31 = getelementptr inbounds i8, ptr %.0.i.i.i.i, i64 -1024
  %32 = getelementptr inbounds nuw i8, ptr %19, i64 168
  store ptr %31, ptr %32, align 8
  %33 = add i64 %14, 1
  store i64 %33, ptr getelementptr inbounds nuw (i8, ptr @region, i64 96), align 8
  %indvars.iv.next = add nuw nsw i64 %indvars.iv, 1
  %exitcond.not = icmp eq i64 %indvars.iv.next, %wide.trip.count
  br i1 %exitcond.not, label %._crit_edge, label %13, !llvm.loop !10

._crit_edge:                                      ; preds = %tcg_region_initial_alloc__locked.exit, %0
  tail call void @qemu_mutex_unlock_impl(ptr noundef nonnull @region, ptr noundef nonnull @.str, i32 noundef 420) #12
  %34 = load i64, ptr getelementptr inbounds nuw (i8, ptr @region, i64 64), align 8
  %.not.i.i = icmp eq i64 %34, 0
  br i1 %.not.i.i, label %tcg_region_tree_reset_all.exit, label %.lr.ph.i.i

.lr.ph.i.i:                                       ; preds = %._crit_edge, %.lr.ph.i.i
  %.06.i.i = phi i64 [ %41, %.lr.ph.i.i ], [ 0, %._crit_edge ]
  %35 = load ptr, ptr @region_trees, align 8
  %36 = load i64, ptr @tree_size, align 8
  %37 = mul i64 %36, %.06.i.i
  %38 = getelementptr inbounds nuw i8, ptr %35, i64 %37
  %39 = load atomic i64, ptr @qemu_mutex_lock_func monotonic, align 8
  %40 = inttoptr i64 %39 to ptr
  tail call void %40(ptr noundef %38, ptr noundef nonnull @.str, i32 noundef 271) #12
  %41 = add nuw i64 %.06.i.i, 1
  %42 = load i64, ptr getelementptr inbounds nuw (i8, ptr @region, i64 64), align 8
  %43 = icmp ult i64 %41, %42
  br i1 %43, label %.lr.ph.i.i, label %tcg_region_tree_lock_all.exit.i, !llvm.loop !5

tcg_region_tree_lock_all.exit.i:                  ; preds = %.lr.ph.i.i
  %44 = icmp eq i64 %42, 0
  br i1 %44, label %tcg_region_tree_reset_all.exit, label %.lr.ph.i

.lr.ph.i:                                         ; preds = %tcg_region_tree_lock_all.exit.i, %.lr.ph.i
  %.06.i = phi i64 [ %53, %.lr.ph.i ], [ 0, %tcg_region_tree_lock_all.exit.i ]
  %45 = load ptr, ptr @region_trees, align 8
  %46 = load i64, ptr @tree_size, align 8
  %47 = mul i64 %46, %.06.i
  %48 = getelementptr inbounds nuw i8, ptr %45, i64 %47
  %49 = getelementptr inbounds nuw i8, ptr %48, i64 48
  %50 = load ptr, ptr %49, align 8
  %51 = tail call ptr @q_tree_ref(ptr noundef %50) #12
  %52 = load ptr, ptr %49, align 8
  tail call void @q_tree_destroy(ptr noundef %52) #12
  %53 = add nuw i64 %.06.i, 1
  %54 = load i64, ptr getelementptr inbounds nuw (i8, ptr @region, i64 64), align 8
  %55 = icmp ult i64 %53, %54
  br i1 %55, label %.lr.ph.i, label %._crit_edge.i, !llvm.loop !11

._crit_edge.i:                                    ; preds = %.lr.ph.i
  %56 = icmp eq i64 %54, 0
  br i1 %56, label %tcg_region_tree_reset_all.exit, label %.lr.ph.i5.i

.lr.ph.i5.i:                                      ; preds = %._crit_edge.i, %.lr.ph.i5.i
  %.03.i.i = phi i64 [ %61, %.lr.ph.i5.i ], [ 0, %._crit_edge.i ]
  %57 = load ptr, ptr @region_trees, align 8
  %58 = load i64, ptr @tree_size, align 8
  %59 = mul i64 %58, %.03.i.i
  %60 = getelementptr inbounds nuw i8, ptr %57, i64 %59
  tail call void @qemu_mutex_unlock_impl(ptr noundef %60, ptr noundef nonnull @.str, i32 noundef 282) #12
  %61 = add nuw i64 %.03.i.i, 1
  %62 = load i64, ptr getelementptr inbounds nuw (i8, ptr @region, i64 64), align 8
  %63 = icmp ult i64 %61, %62
  br i1 %63, label %.lr.ph.i5.i, label %tcg_region_tree_reset_all.exit, !llvm.loop !8

tcg_region_tree_reset_all.exit:                   ; preds = %.lr.ph.i5.i, %._crit_edge, %tcg_region_tree_lock_all.exit.i, %._crit_edge.i
  ret void
}